Certificate:
    Data:
        Version: 3 (0x2)
        Serial Number:
            ac:c5:51:21:8d:c3:56:75
        Signature Algorithm: sha1WithRSAEncryption
        Issuer: C=US, ST=Pennsylvania, O=Franken Technologies, llc, OU=MEAN, CN=David Souther
        Validity
            Not Before: Sep 10 03:39:26 2014 GMT
            Not After : Sep 10 03:39:26 2015 GMT
        Subject: C=US, ST=Pennsylvania, O=Franken Technologies, llc, CN=*.davidsouther.com
        Subject Public Key Info:
            Public Key Algorithm: rsaEncryption
            RSA Public Key: (2048 bit)
                Modulus (2048 bit):
                    00:e8:fb:45:ed:91:2d:44:a7:1e:9a:40:0a:a4:b5:
                    d9:54:78:c0:fc:11:fb:b5:a1:87:fe:77:bb:03:aa:
                    f5:cc:f4:9c:4d:33:a3:f7:98:9e:2b:8c:d0:10:0d:
                    5b:d0:3a:98:2c:5a:6e:a4:2c:6d:44:0f:22:64:e9:
                    4e:1a:b3:3f:c2:02:e8:5c:e0:d2:e1:b6:7d:eb:70:
                    31:cb:5d:8c:16:cf:19:17:85:7e:1b:e4:08:41:8d:
                    e7:90:d5:24:61:f3:81:4c:e1:c3:82:73:85:c4:be:
                    39:7d:64:24:fd:b7:0b:57:f5:44:7f:06:0c:e3:67:
                    9a:c9:42:07:e6:6a:f1:89:5d:94:43:2d:fc:f2:fd:
                    05:a5:1a:39:f6:06:4a:9c:c8:a9:56:f8:99:e5:d5:
                    a2:3f:3b:f9:70:d7:68:19:f5:4f:93:05:93:8e:47:
                    3f:49:d5:a3:b8:a5:64:94:d9:47:a7:74:d0:cf:d8:
                    cf:ea:2a:3c:29:04:1e:16:d9:84:82:63:3a:e4:11:
                    34:37:33:44:67:f3:c0:12:5b:b6:d5:59:3c:8f:a9:
                    97:08:10:f9:ae:7b:93:a4:1a:c6:88:d8:1a:ac:1b:
                    87:45:e0:b9:b2:6b:e5:54:bc:91:40:de:d5:28:d5:
                    e3:d3:fb:88:66:89:51:1b:89:cb:89:cf:d0:e3:3f:
                    be:5d
                Exponent: 65537 (0x10001)
        X509v3 extensions:
            X509v3 Basic Constraints: 
                CA:FALSE
            X509v3 Subject Key Identifier: 
                17:50:4F:30:EB:06:95:47:10:7D:23:D4:4C:42:4E:9D:75:BA:D4:5A
            X509v3 Authority Key Identifier: 
                keyid:19:31:20:08:3B:42:73:3B:59:09:E8:E3:DD:5E:50:5F:C1:4B:1F:91

            X509v3 Subject Alternative Name: 
                <EMPTY>

            X509v3 CRL Distribution Points: 
                URI:https://davidsouther.com/ca.crl

    Signature Algorithm: sha1WithRSAEncryption
        2b:c4:3a:7d:1f:a5:03:d4:0c:f4:a2:35:8c:08:78:a5:ba:ed:
        06:12:85:a2:55:a5:01:75:51:ad:95:02:83:a3:75:32:4c:41:
        59:b8:7e:3c:38:d4:b9:b3:1a:a0:67:eb:6a:72:be:7a:26:b4:
        69:84:98:9f:69:a0:c1:b4:02:83:33:67:7c:98:79:30:4c:e3:
        ce:22:84:06:d7:5a:b0:bf:90:c0:4a:a2:c9:56:e3:6d:38:f2:
        e4:43:5d:96:cb:68:63:bc:03:0c:c3:62:bf:77:7c:76:bf:e3:
        80:e1:a8:df:0e:27:da:15:25:44:1a:7b:e2:2d:0e:0f:f5:88:
        60:a5:22:c2:10:36:3e:e5:48:cf:97:0d:75:de:17:8b:de:1a:
        c1:47:f9:1c:bb:18:32:98:b5:6c:26:f9:db:25:38:a1:e2:9f:
        e5:f7:5a:09:45:dc:93:5c:9a:f0:21:01:89:5d:8e:ef:c9:ad:
        1d:43:7f:28:1d:61:79:4f:82:8e:d1:00:c2:d0:62:be:4c:ef:
        63:6f:5a:74:25:bf:f7:cb:a4:b3:33:66:d1:ed:6c:24:97:d9:
        dc:42:f0:81:69:8d:60:ca:de:e8:4e:39:86:3d:f4:c1:22:a6:
        82:c9:09:2b:b8:4f:fa:f8:17:89:a5:e8:34:4e:28:c6:7e:5c:
        62:54:c9:5e
-----BEGIN CERTIFICATE-----
MIID4zCCAsugAwIBAgIJAKzFUSGNw1Z1MA0GCSqGSIb3DQEBBQUAMG8xCzAJBgNV
BAYTAlVTMRUwEwYDVQQIEwxQZW5uc3lsdmFuaWExIjAgBgNVBAoTGUZyYW5rZW4g
VGVjaG5vbG9naWVzLCBsbGMxDTALBgNVBAsTBE1FQU4xFjAUBgNVBAMTDURhdmlk
IFNvdXRoZXIwHhcNMTQwOTEwMDMzOTI2WhcNMTUwOTEwMDMzOTI2WjBlMQswCQYD
VQQGEwJVUzEVMBMGA1UECBMMUGVubnN5bHZhbmlhMSIwIAYDVQQKExlGcmFua2Vu
IFRlY2hub2xvZ2llcywgbGxjMRswGQYDVQQDFBIqLmRhdmlkc291dGhlci5jb20w
ggEiMA0GCSqGSIb3DQEBAQUAA4IBDwAwggEKAoIBAQDo+0XtkS1Epx6aQAqktdlU
eMD8Efu1oYf+d7sDqvXM9JxNM6P3mJ4rjNAQDVvQOpgsWm6kLG1EDyJk6U4asz/C
Auhc4NLhtn3rcDHLXYwWzxkXhX4b5AhBjeeQ1SRh84FM4cOCc4XEvjl9ZCT9twtX
9UR/BgzjZ5rJQgfmavGJXZRDLfzy/QWlGjn2BkqcyKlW+Jnl1aI/O/lw12gZ9U+T
BZOORz9J1aO4pWSU2UendNDP2M/qKjwpBB4W2YSCYzrkETQ3M0Rn88ASW7bVWTyP
qZcIEPmue5OkGsaI2BqsG4dF4Lmya+VUvJFA3tUo1ePT+4hmiVEbicuJz9DjP75d
AgMBAAGjgYswgYgwCQYDVR0TBAIwADAdBgNVHQ4EFgQUF1BPMOsGlUcQfSPUTEJO
nXW61FowHwYDVR0jBBgwFoAUGTEgCDtCcztZCejj3V5QX8FLH5EwCQYDVR0RBAIw
ADAwBgNVHR8EKTAnMCWgI6Ahhh9odHRwczovL2Rhdmlkc291dGhlci5jb20vY2Eu
Y3JsMA0GCSqGSIb3DQEBBQUAA4IBAQArxDp9H6UD1Az0ojWMCHiluu0GEoWiVaUB
dVGtlQKDo3UyTEFZuH48ONS5sxqgZ+tqcr56JrRphJifaaDBtAKDM2d8mHkwTOPO
IoQG11qwv5DASqLJVuNtOPLkQ12Wy2hjvAMMw2K/d3x2v+OA4ajfDifaFSVEGnvi
LQ4P9YhgpSLCEDY+5UjPlw113heL3hrBR/kcuxgymLVsJvnbJTih4p/l91oJRdyT
XJrwIQGJXY7vya0dQ38oHWF5T4KO0QDC0GK+TO9jb1p0Jb/3y6SzM2bR7Wwkl9nc
QvCBaY1gyt7oTjmGPfTBIqaCyQkruE/6+BeJpeg0TijGflxiVMle
-----END CERTIFICATE-----
