Certificate:
    Data:
        Version: 3 (0x2)
        Serial Number:
            ac:c5:51:21:8d:c3:56:74
        Signature Algorithm: sha1WithRSAEncryption
        Issuer: C=US, ST=Pennsylvania, O=Franken Technologies, llc, OU=MEAN, CN=David Souther
        Validity
            Not Before: Sep 10 03:12:55 2014 GMT
            Not After : Sep 10 03:12:55 2015 GMT
        Subject: C=US, ST=Pennsylvania, O=Franken Technologies, llc, OU=Dolores, CN=David Souther
        Subject Public Key Info:
            Public Key Algorithm: rsaEncryption
            RSA Public Key: (2048 bit)
                Modulus (2048 bit):
                    00:bb:6a:c5:19:1e:fc:8d:53:e2:f9:a4:d2:1a:c9:
                    fc:b5:4b:77:0d:43:99:fb:0c:60:25:23:c6:fa:42:
                    fb:17:d6:a9:64:fd:04:be:8a:1c:3f:60:c6:d9:87:
                    37:44:88:e1:ec:5b:f4:b0:a6:64:64:5d:b6:6a:62:
                    1e:5b:26:2a:c4:72:be:31:a8:a9:b6:7f:44:05:cc:
                    a2:fc:f6:53:ab:d1:ac:5a:74:8a:fb:71:db:4e:9c:
                    5f:df:96:10:b0:79:28:57:6b:0c:99:ce:b1:b3:66:
                    dc:71:fb:7b:b8:47:aa:80:aa:56:65:7f:4f:2a:b7:
                    51:63:8e:0c:b7:ba:7a:5c:30:e4:5a:f2:bc:b5:c3:
                    64:e7:21:70:78:49:cf:18:44:e4:c6:c5:83:c3:15:
                    fb:d0:b8:5f:f5:67:ab:ac:89:c8:67:ce:23:e3:7f:
                    a5:c5:47:0d:dc:59:7f:2a:12:e6:08:04:aa:b4:13:
                    ba:5a:4f:f0:4d:a2:03:a1:f4:06:e6:5a:61:d7:ad:
                    a1:46:81:ca:26:36:75:0b:3a:9f:2d:0e:f2:af:8f:
                    c7:11:7e:5f:df:4b:01:c5:c8:11:49:cc:9d:0d:79:
                    fd:8f:b5:3d:4e:94:dc:85:fe:a9:94:b2:ed:ef:d9:
                    ea:fc:91:b0:6d:9c:85:89:3c:e1:c7:a6:a3:75:87:
                    98:3f
                Exponent: 65537 (0x10001)
        X509v3 extensions:
            X509v3 Basic Constraints: 
                CA:FALSE
            X509v3 Subject Key Identifier: 
                80:8A:B8:28:76:4A:97:06:C2:8D:26:E2:81:BE:AF:E6:66:C2:10:1B
            X509v3 Authority Key Identifier: 
                keyid:19:31:20:08:3B:42:73:3B:59:09:E8:E3:DD:5E:50:5F:C1:4B:1F:91

            X509v3 Subject Alternative Name: 
                <EMPTY>

            X509v3 CRL Distribution Points: 
                URI:https://davidsouther.com/ca.crl

    Signature Algorithm: sha1WithRSAEncryption
        3d:7e:62:b9:42:d5:95:8a:83:59:08:b3:5b:71:4b:63:b3:90:
        c4:93:28:5d:d1:de:00:66:68:a1:e0:34:75:d3:07:ed:e4:cf:
        1f:cb:43:76:a6:fb:c7:fb:80:e6:03:cf:a1:0f:4e:dd:02:f3:
        c6:a8:94:06:68:56:4c:e0:e2:31:85:bc:62:5d:c8:51:85:0b:
        b8:d6:5c:73:bb:d5:ff:df:12:d5:cb:7f:20:1a:6c:1c:2f:be:
        11:26:02:92:c7:5e:74:9e:05:5d:09:ff:ce:56:05:dc:23:74:
        f3:34:81:89:a8:e5:64:eb:99:7b:92:d0:83:33:d7:2a:3c:f9:
        c8:0e:a1:98:33:4d:08:ac:9d:e9:c6:cf:0c:00:04:e6:98:69:
        08:b4:77:56:87:d9:25:02:98:cc:0d:dc:d3:4c:e1:a4:4c:bc:
        39:f0:5e:a6:8f:82:2b:69:a5:6b:d1:21:f8:d0:d0:2c:55:ba:
        ef:bc:fc:10:0d:39:4d:9b:b6:49:60:eb:56:be:7e:7c:a4:9c:
        e3:de:7d:93:40:ac:61:e2:33:f9:9c:9a:3c:e4:87:6b:9b:3c:
        b5:b5:27:64:6f:d7:2d:bf:d0:e5:d5:be:4c:12:3c:e9:7e:b2:
        da:c1:cc:e8:f5:0e:2d:a2:77:69:14:3c:18:c0:c8:6b:d8:50:
        f3:50:63:43
-----BEGIN CERTIFICATE-----
MIID8DCCAtigAwIBAgIJAKzFUSGNw1Z0MA0GCSqGSIb3DQEBBQUAMG8xCzAJBgNV
BAYTAlVTMRUwEwYDVQQIEwxQZW5uc3lsdmFuaWExIjAgBgNVBAoTGUZyYW5rZW4g
VGVjaG5vbG9naWVzLCBsbGMxDTALBgNVBAsTBE1FQU4xFjAUBgNVBAMTDURhdmlk
IFNvdXRoZXIwHhcNMTQwOTEwMDMxMjU1WhcNMTUwOTEwMDMxMjU1WjByMQswCQYD
VQQGEwJVUzEVMBMGA1UECBMMUGVubnN5bHZhbmlhMSIwIAYDVQQKExlGcmFua2Vu
IFRlY2hub2xvZ2llcywgbGxjMRAwDgYDVQQLEwdEb2xvcmVzMRYwFAYDVQQDEw1E
YXZpZCBTb3V0aGVyMIIBIjANBgkqhkiG9w0BAQEFAAOCAQ8AMIIBCgKCAQEAu2rF
GR78jVPi+aTSGsn8tUt3DUOZ+wxgJSPG+kL7F9apZP0EvoocP2DG2Yc3RIjh7Fv0
sKZkZF22amIeWyYqxHK+Maiptn9EBcyi/PZTq9GsWnSK+3HbTpxf35YQsHkoV2sM
mc6xs2bccft7uEeqgKpWZX9PKrdRY44Mt7p6XDDkWvK8tcNk5yFweEnPGETkxsWD
wxX70Lhf9WerrInIZ84j43+lxUcN3Fl/KhLmCASqtBO6Wk/wTaIDofQG5lph162h
RoHKJjZ1CzqfLQ7yr4/HEX5f30sBxcgRScydDXn9j7U9TpTchf6plLLt79nq/JGw
bZyFiTzhx6ajdYeYPwIDAQABo4GLMIGIMAkGA1UdEwQCMAAwHQYDVR0OBBYEFICK
uCh2SpcGwo0m4oG+r+ZmwhAbMB8GA1UdIwQYMBaAFBkxIAg7QnM7WQno491eUF/B
Sx+RMAkGA1UdEQQCMAAwMAYDVR0fBCkwJzAloCOgIYYfaHR0cHM6Ly9kYXZpZHNv
dXRoZXIuY29tL2NhLmNybDANBgkqhkiG9w0BAQUFAAOCAQEAPX5iuULVlYqDWQiz
W3FLY7OQxJMoXdHeAGZooeA0ddMH7eTPH8tDdqb7x/uA5gPPoQ9O3QLzxqiUBmhW
TODiMYW8Yl3IUYULuNZcc7vV/98S1ct/IBpsHC++ESYCksdedJ4FXQn/zlYF3CN0
8zSBiajlZOuZe5LQgzPXKjz5yA6hmDNNCKyd6cbPDAAE5phpCLR3VofZJQKYzA3c
00zhpEy8OfBepo+CK2mla9Eh+NDQLFW677z8EA05TZu2SWDrVr5+fKSc4959k0Cs
YeIz+ZyaPOSHa5s8tbUnZG/XLb/Q5dW+TBI86X6y2sHM6PUOLaJ3aRQ8GMDIa9hQ
81BjQw==
-----END CERTIFICATE-----
