Certificate:
    Data:
        Version: 3 (0x2)
        Serial Number:
            ac:c5:51:21:8d:c3:56:76
        Signature Algorithm: sha1WithRSAEncryption
        Issuer: C=US, ST=Pennsylvania, O=Franken Technologies, llc, OU=MEAN, CN=David Souther
        Validity
            Not Before: Sep 14 19:32:19 2014 GMT
            Not After : Sep 14 19:32:19 2015 GMT
        Subject: C=US, ST=Pennsylvania, O=Franken Technologies, llc, OU=DataOnline, CN=api.dataonline.com
        Subject Public Key Info:
            Public Key Algorithm: rsaEncryption
            RSA Public Key: (2048 bit)
                Modulus (2048 bit):
                    00:d8:a2:80:c6:b0:7f:6a:cf:55:88:8e:c1:c4:b9:
                    fb:a0:fc:12:68:31:c3:b5:32:da:fd:db:35:f6:18:
                    cf:4a:28:62:9a:33:73:20:cc:31:2d:4a:05:ec:e6:
                    cc:ee:de:79:d9:b6:d0:32:31:6b:5a:19:00:5c:70:
                    25:1d:e5:b4:bb:81:e7:79:b4:e4:24:e1:92:ff:67:
                    98:0b:03:8e:cb:df:a4:51:7b:5a:4b:28:4a:de:4d:
                    2e:d6:0a:05:1a:b0:81:aa:1a:b1:c2:aa:e8:07:b6:
                    db:15:f2:11:59:c5:7a:3d:99:82:27:a2:7b:ed:bf:
                    92:06:11:1f:d2:7e:e4:69:8c:80:b7:3b:16:5e:cd:
                    36:f9:87:07:73:0c:e0:b0:8b:ac:ee:29:cb:61:77:
                    b5:dc:50:87:e8:f7:d7:e5:85:30:a1:0c:48:53:a0:
                    95:bc:6c:e3:31:ca:d9:6c:d4:3c:07:6d:9e:77:d3:
                    b9:21:44:60:81:24:1b:e9:bb:cb:62:6a:f3:47:22:
                    e1:38:6a:d0:2b:48:8a:c2:b5:d0:58:96:07:28:88:
                    2e:5e:5e:65:c2:f9:09:52:35:9f:97:d1:ef:6f:a6:
                    64:d1:0b:af:b3:6b:a0:bd:34:e7:55:28:16:c1:32:
                    4d:c8:74:5e:3e:03:db:c5:48:85:67:24:c0:2d:11:
                    08:43
                Exponent: 65537 (0x10001)
        X509v3 extensions:
            X509v3 Basic Constraints: 
                CA:FALSE
            X509v3 Subject Key Identifier: 
                26:29:4E:4C:30:0D:93:B5:EC:43:7F:F5:3F:1A:E7:07:FC:61:62:FA
            X509v3 Authority Key Identifier: 
                keyid:19:31:20:08:3B:42:73:3B:59:09:E8:E3:DD:5E:50:5F:C1:4B:1F:91

            X509v3 Subject Alternative Name: 
                <EMPTY>

            X509v3 CRL Distribution Points: 
                URI:https://davidsouther.com/ca.crl

    Signature Algorithm: sha1WithRSAEncryption
        77:3b:56:a5:32:7b:1b:c2:b5:7d:ac:a0:c1:2a:cf:d8:99:f2:
        28:dd:2c:99:8c:4c:95:c8:b5:c7:09:be:ae:2d:1d:4a:db:f8:
        07:b4:c4:c8:26:34:66:6c:cd:f6:d5:41:89:36:67:3d:9d:78:
        de:ce:d0:05:cf:2c:28:cf:0a:ed:ca:0c:68:8f:68:66:71:58:
        38:d7:c3:8c:12:5b:bc:aa:b2:a1:40:bd:b7:57:3e:6c:0a:46:
        1d:83:9d:a6:4f:6d:2b:66:b8:f6:d4:15:47:65:35:1e:19:f2:
        dd:87:be:4f:ed:98:4f:a9:6b:d0:2c:95:58:e8:ff:d1:f5:56:
        66:49:93:e4:4d:97:e3:3a:6f:40:f2:5b:f5:36:5b:5e:3a:d6:
        35:5f:df:c0:e4:23:f1:83:e4:84:30:46:a7:3b:93:ae:00:f3:
        8d:4f:f7:e4:1a:c1:5d:c4:c1:e2:76:04:54:ce:15:2d:ea:8f:
        f0:7a:c5:aa:d0:78:a8:f4:78:57:8c:98:7b:de:6f:55:a2:f1:
        09:c7:38:35:84:3a:76:e2:af:78:d4:38:a8:51:b4:f9:0f:8b:
        4d:75:2d:dc:04:41:9b:d8:cf:ff:4d:8d:60:f7:10:bb:80:74:
        41:bd:2d:6d:f8:fb:b2:49:c6:ef:77:98:6d:16:80:5a:aa:0c:
        7f:9f:42:ca
-----BEGIN CERTIFICATE-----
MIID+DCCAuCgAwIBAgIJAKzFUSGNw1Z2MA0GCSqGSIb3DQEBBQUAMG8xCzAJBgNV
BAYTAlVTMRUwEwYDVQQIEwxQZW5uc3lsdmFuaWExIjAgBgNVBAoTGUZyYW5rZW4g
VGVjaG5vbG9naWVzLCBsbGMxDTALBgNVBAsTBE1FQU4xFjAUBgNVBAMTDURhdmlk
IFNvdXRoZXIwHhcNMTQwOTE0MTkzMjE5WhcNMTUwOTE0MTkzMjE5WjB6MQswCQYD
VQQGEwJVUzEVMBMGA1UECBMMUGVubnN5bHZhbmlhMSIwIAYDVQQKExlGcmFua2Vu
IFRlY2hub2xvZ2llcywgbGxjMRMwEQYDVQQLEwpEYXRhT25saW5lMRswGQYDVQQD
ExJhcGkuZGF0YW9ubGluZS5jb20wggEiMA0GCSqGSIb3DQEBAQUAA4IBDwAwggEK
AoIBAQDYooDGsH9qz1WIjsHEufug/BJoMcO1Mtr92zX2GM9KKGKaM3MgzDEtSgXs
5szu3nnZttAyMWtaGQBccCUd5bS7ged5tOQk4ZL/Z5gLA47L36RRe1pLKEreTS7W
CgUasIGqGrHCqugHttsV8hFZxXo9mYInonvtv5IGER/SfuRpjIC3OxZezTb5hwdz
DOCwi6zuKcthd7XcUIfo99flhTChDEhToJW8bOMxytls1DwHbZ5307khRGCBJBvp
u8tiavNHIuE4atArSIrCtdBYlgcoiC5eXmXC+QlSNZ+X0e9vpmTRC6+za6C9NOdV
KBbBMk3IdF4+A9vFSIVnJMAtEQhDAgMBAAGjgYswgYgwCQYDVR0TBAIwADAdBgNV
HQ4EFgQUJilOTDANk7XsQ3/1PxrnB/xhYvowHwYDVR0jBBgwFoAUGTEgCDtCcztZ
Cejj3V5QX8FLH5EwCQYDVR0RBAIwADAwBgNVHR8EKTAnMCWgI6Ahhh9odHRwczov
L2Rhdmlkc291dGhlci5jb20vY2EuY3JsMA0GCSqGSIb3DQEBBQUAA4IBAQB3O1al
MnsbwrV9rKDBKs/YmfIo3SyZjEyVyLXHCb6uLR1K2/gHtMTIJjRmbM321UGJNmc9
nXjeztAFzywozwrtygxoj2hmcVg418OMElu8qrKhQL23Vz5sCkYdg52mT20rZrj2
1BVHZTUeGfLdh75P7ZhPqWvQLJVY6P/R9VZmSZPkTZfjOm9A8lv1NlteOtY1X9/A
5CPxg+SEMEanO5OuAPONT/fkGsFdxMHidgRUzhUt6o/wesWq0Hio9HhXjJh73m9V
ovEJxzg1hDp24q941DioUbT5D4tNdS3cBEGb2M//TY1g9xC7gHRBvS1t+PuyScbv
d5htFoBaqgx/n0LK
-----END CERTIFICATE-----
