Certificate:
    Data:
        Version: 3 (0x2)
        Serial Number:
            ac:c5:51:21:8d:c3:56:73
        Signature Algorithm: sha1WithRSAEncryption
        Issuer: C=US, ST=Pennsylvania, O=Franken Technologies, llc, OU=MEAN, CN=David Souther
        Validity
            Not Before: Sep 10 00:25:54 2014 GMT
            Not After : Sep 10 00:25:54 2015 GMT
        Subject: C=US, ST=Pennsylvania, O=Franken Technologies, llc, OU=MEAN, CN=David Souther
        Subject Public Key Info:
            Public Key Algorithm: rsaEncryption
            RSA Public Key: (2048 bit)
                Modulus (2048 bit):
                    00:df:51:73:2c:98:69:45:e5:d6:80:4d:ff:0a:f7:
                    5b:7f:a5:0e:c2:a4:c4:3f:0f:e2:fe:b4:cf:7d:29:
                    d5:24:3b:42:ad:fc:e7:c0:34:c6:c9:52:78:ce:cf:
                    c3:ba:39:51:c4:7f:40:a9:54:86:64:43:0e:af:f0:
                    32:cb:98:ab:c8:c9:1f:de:53:6f:a6:a8:77:35:f1:
                    ff:bd:52:a9:43:d3:ef:2e:b5:b5:9d:66:f1:ff:c5:
                    3a:72:1a:2b:ca:b6:fa:71:71:1a:c4:74:6f:f1:56:
                    41:8b:27:58:65:60:89:13:97:1d:60:15:39:ed:d8:
                    1c:b1:33:8b:1d:33:fc:3a:cb:bd:aa:9e:f7:52:41:
                    19:b6:1c:0b:4b:d1:23:f0:c6:47:e0:0c:36:cc:d4:
                    87:c1:e1:8d:66:6c:18:6e:ee:e1:bb:e6:ef:3f:71:
                    d5:60:b9:d0:22:36:9a:4e:19:c8:f1:b1:dd:b4:ac:
                    58:53:1b:42:e3:61:34:2f:88:18:29:60:06:7d:4e:
                    69:37:ae:90:ec:8b:a9:fd:16:55:6e:c6:65:fa:a3:
                    73:c5:5d:de:61:91:af:53:a3:b7:ac:ac:0a:32:71:
                    2e:3a:d6:b5:34:86:14:e9:49:74:99:52:a3:8e:c4:
                    b1:92:5d:2e:d8:2f:d7:01:c9:d6:98:49:43:c8:75:
                    09:41
                Exponent: 65537 (0x10001)
        X509v3 extensions:
            X509v3 Subject Key Identifier: 
                19:31:20:08:3B:42:73:3B:59:09:E8:E3:DD:5E:50:5F:C1:4B:1F:91
            X509v3 Authority Key Identifier: 
                keyid:19:31:20:08:3B:42:73:3B:59:09:E8:E3:DD:5E:50:5F:C1:4B:1F:91
                DirName:/C=US/ST=Pennsylvania/O=Franken Technologies, llc/OU=MEAN/CN=David Souther
                serial:AC:C5:51:21:8D:C3:56:73

            X509v3 Basic Constraints: 
                CA:TRUE
            X509v3 CRL Distribution Points: 
                URI:https://davidsouther.com/ca.crl

            X509v3 Subject Alternative Name: 
                email:davidsouther@gmail.com
    Signature Algorithm: sha1WithRSAEncryption
        3c:1d:12:fc:24:e0:d3:e2:8c:ac:25:58:96:60:19:ad:8c:8d:
        3c:9c:3f:fd:17:3c:c6:21:f3:37:d3:52:34:d8:0e:f7:5b:cc:
        ea:fc:04:7b:84:5e:1c:20:21:7e:6e:50:c7:09:de:60:3b:b7:
        b4:e1:54:0b:32:c0:61:76:7a:e0:38:84:58:19:0f:9f:50:f4:
        30:ee:bd:39:91:6c:e1:2e:1f:90:9f:21:01:ab:be:5c:f8:b8:
        44:ad:d5:b8:1f:a7:09:49:0a:bc:78:c7:f3:4c:52:f3:d8:81:
        94:f5:99:29:a7:37:08:bd:8c:17:04:89:91:7c:e3:5e:90:b6:
        f3:98:f0:f2:07:4f:68:ed:f3:b5:70:9d:c7:90:13:ce:48:57:
        7f:ea:16:cd:62:a9:d2:f9:91:28:03:51:cf:bb:a3:f7:96:79:
        7a:3b:e0:22:33:a5:bd:f3:d7:a7:f1:97:af:a2:45:f5:00:c5:
        d0:70:d7:59:ba:53:a9:04:91:92:2f:a0:b4:e3:1f:5f:63:d7:
        a6:dd:a7:32:95:28:73:cf:98:e3:b2:1e:95:a0:dd:f0:32:0f:
        c6:8e:ec:95:3e:fa:ed:39:4c:c1:78:95:ee:11:51:16:47:16:
        36:38:f9:d1:06:fc:a8:82:87:8e:20:2e:6f:34:c2:fb:76:dd:
        1e:47:78:67
-----BEGIN CERTIFICATE-----
MIIEjTCCA3WgAwIBAgIJAKzFUSGNw1ZzMA0GCSqGSIb3DQEBBQUAMG8xCzAJBgNV
BAYTAlVTMRUwEwYDVQQIEwxQZW5uc3lsdmFuaWExIjAgBgNVBAoTGUZyYW5rZW4g
VGVjaG5vbG9naWVzLCBsbGMxDTALBgNVBAsTBE1FQU4xFjAUBgNVBAMTDURhdmlk
IFNvdXRoZXIwHhcNMTQwOTEwMDAyNTU0WhcNMTUwOTEwMDAyNTU0WjBvMQswCQYD
VQQGEwJVUzEVMBMGA1UECBMMUGVubnN5bHZhbmlhMSIwIAYDVQQKExlGcmFua2Vu
IFRlY2hub2xvZ2llcywgbGxjMQ0wCwYDVQQLEwRNRUFOMRYwFAYDVQQDEw1EYXZp
ZCBTb3V0aGVyMIIBIjANBgkqhkiG9w0BAQEFAAOCAQ8AMIIBCgKCAQEA31FzLJhp
ReXWgE3/Cvdbf6UOwqTEPw/i/rTPfSnVJDtCrfznwDTGyVJ4zs/DujlRxH9AqVSG
ZEMOr/Ayy5iryMkf3lNvpqh3NfH/vVKpQ9PvLrW1nWbx/8U6choryrb6cXEaxHRv
8VZBiydYZWCJE5cdYBU57dgcsTOLHTP8Osu9qp73UkEZthwLS9Ej8MZH4Aw2zNSH
weGNZmwYbu7hu+bvP3HVYLnQIjaaThnI8bHdtKxYUxtC42E0L4gYKWAGfU5pN66Q
7Iup/RZVbsZl+qNzxV3eYZGvU6O3rKwKMnEuOta1NIYU6Ul0mVKjjsSxkl0u2C/X
AcnWmElDyHUJQQIDAQABo4IBKjCCASYwHQYDVR0OBBYEFBkxIAg7QnM7WQno491e
UF/BSx+RMIGhBgNVHSMEgZkwgZaAFBkxIAg7QnM7WQno491eUF/BSx+RoXOkcTBv
MQswCQYDVQQGEwJVUzEVMBMGA1UECBMMUGVubnN5bHZhbmlhMSIwIAYDVQQKExlG
cmFua2VuIFRlY2hub2xvZ2llcywgbGxjMQ0wCwYDVQQLEwRNRUFOMRYwFAYDVQQD
Ew1EYXZpZCBTb3V0aGVyggkArMVRIY3DVnMwDAYDVR0TBAUwAwEB/zAwBgNVHR8E
KTAnMCWgI6Ahhh9odHRwczovL2Rhdmlkc291dGhlci5jb20vY2EuY3JsMCEGA1Ud
EQQaMBiBFmRhdmlkc291dGhlckBnbWFpbC5jb20wDQYJKoZIhvcNAQEFBQADggEB
ADwdEvwk4NPijKwlWJZgGa2MjTycP/0XPMYh8zfTUjTYDvdbzOr8BHuEXhwgIX5u
UMcJ3mA7t7ThVAsywGF2euA4hFgZD59Q9DDuvTmRbOEuH5CfIQGrvlz4uESt1bgf
pwlJCrx4x/NMUvPYgZT1mSmnNwi9jBcEiZF8416QtvOY8PIHT2jt87VwnceQE85I
V3/qFs1iqdL5kSgDUc+7o/eWeXo74CIzpb3z16fxl6+iRfUAxdBw11m6U6kEkZIv
oLTjH19j16bdpzKVKHPPmOOyHpWg3fAyD8aO7JU++u05TMF4le4RURZHFjY4+dEG
/KiCh44gLm80wvt23R5HeGc=
-----END CERTIFICATE-----
